target datalayout = "e-m:e-p270:32:32-p271:32:32-p272:64:64-i64:64-i128:128-f80:128-n8:16:32:64-S128"
target triple = "x86_64-pc-linux-gnu"

%"class.rocksdb::clock_cache::BaseClockTable.base" = type { %"class.rocksdb::RelaxedAtomic", %"class.rocksdb::RelaxedAtomic", %"class.rocksdb::RelaxedAtomic", [40 x i8], %"class.rocksdb::AcqRelAtomic", %"class.rocksdb::AcqRelAtomic", %"class.rocksdb::AcqRelAtomic", [40 x i8], i32, ptr, ptr, ptr }
%"class.rocksdb::AcqRelAtomic" = type { %"class.rocksdb::RelaxedAtomic" }
%"class.rocksdb::RelaxedAtomic" = type { %"struct.std::atomic" }
%"struct.std::atomic" = type { %"struct.std::__atomic_base" }
%"struct.std::__atomic_base" = type { i64 }
%"class.rocksdb::clock_cache::AutoHyperClockTable" = type { %"class.rocksdb::clock_cache::BaseClockTable.base", %"class.rocksdb::TypedMemMapping", %"class.rocksdb::AcqRelAtomic", %"class.rocksdb::RelaxedAtomic", %"class.rocksdb::RelaxedAtomic", %"class.rocksdb::RelaxedAtomic", [48 x i8] }
%"class.rocksdb::TypedMemMapping" = type { %"class.rocksdb::MemMapping" }
%"class.rocksdb::MemMapping" = type { ptr, i64 }

; Function Attrs: inlinehint mustprogress nounwind uwtable
define linkonce_odr noundef i32 @_ZN7rocksdb10BitwiseAndImiEENSt11conditionalIXltstT_stT0_ES2_S3_E4typeES2_S3_(i64 noundef %0, i32 noundef %1) #3 comdat {
  %3 = alloca i64, align 8
  %4 = alloca i32, align 4
  store i64 %0, ptr %3, align 8, !tbaa !9
  store i32 %1, ptr %4, align 4, !tbaa !34
  %5 = load i64, ptr %3, align 8, !tbaa !9
  %6 = load i32, ptr %4, align 4, !tbaa !34
  %7 = sext i32 %6 to i64
  %8 = and i64 %5, %7
  %9 = trunc i64 %8 to i32
  ret i32 %9
}

; Function Attrs: noinline noreturn nounwind uwtable
define linkonce_odr hidden void @__clang_call_terminate(ptr noundef %0) #11 comdat {
  %2 = call ptr @__cxa_begin_catch(ptr %0) #19
  call void @_ZSt9terminatev() #20
  unreachable
}

; Function Attrs: mustprogress nounwind uwtable
define linkonce_odr noundef i32 @_ZStanSt12memory_orderSt23__memory_order_modifier(i32 noundef %0, i32 noundef %1) #1 comdat {
  %3 = alloca i32, align 4
  %4 = alloca i32, align 4
  store i32 %0, ptr %3, align 4, !tbaa !393
  store i32 %1, ptr %4, align 4, !tbaa !486
  %5 = load i32, ptr %3, align 4, !tbaa !393
  %6 = load i32, ptr %4, align 4, !tbaa !486
  %7 = and i32 %5, %6
  ret i32 %7
}

; Function Attrs: inlinehint mustprogress uwtable
define internal noundef i32 @_ZN7rocksdb11clock_cache12_GLOBAL__N_120LengthInfoToMinShiftEm(i64 noundef %0) #2 {
  %2 = alloca i64, align 8
  %3 = alloca i32, align 4
  store i64 %0, ptr %2, align 8, !tbaa !9
  call void @llvm.lifetime.start.p0(i64 4, ptr %3) #19
  %4 = load i64, ptr %2, align 8, !tbaa !9
  %5 = call noundef i32 @_ZN7rocksdb10BitwiseAndImiEENSt11conditionalIXltstT_stT0_ES2_S3_E4typeES2_S3_(i64 noundef %4, i32 noundef 255)
  store i32 %5, ptr %3, align 4, !tbaa !34
  %6 = load i32, ptr %3, align 4, !tbaa !34
  call void @llvm.lifetime.end.p0(i64 4, ptr %3) #19
  ret i32 %6
}

; Function Attrs: inlinehint mustprogress nounwind uwtable
define internal noundef i64 @_ZN7rocksdb11clock_cache12_GLOBAL__N_121LengthInfoToThresholdEm(i64 noundef %0) #3 {
  %2 = alloca i64, align 8
  store i64 %0, ptr %2, align 8, !tbaa !9
  %3 = load i64, ptr %2, align 8, !tbaa !9
  %4 = lshr i64 %3, 8
  ret i64 %4
}

; Function Attrs: alwaysinline mustprogress nounwind uwtable
define linkonce_odr noundef i64 @_ZNKSt13__atomic_baseImE4loadESt12memory_order(ptr noundef nonnull align 8 dereferenceable(8) %0, i32 noundef %1) #13 comdat align 2 personality ptr @__gxx_personality_v0 {
  %3 = alloca ptr, align 8
  %4 = alloca i32, align 4
  %5 = alloca i32, align 4
  %6 = alloca i64, align 8
  store ptr %0, ptr %3, align 8, !tbaa !391
  store i32 %1, ptr %4, align 4, !tbaa !393
  %7 = load ptr, ptr %3, align 8
  call void @llvm.lifetime.start.p0(i64 4, ptr %5) #19
  %8 = load i32, ptr %4, align 4, !tbaa !393
  %9 = invoke noundef i32 @_ZStanSt12memory_orderSt23__memory_order_modifier(i32 noundef %8, i32 noundef 65535)
          to label %10 unwind label %27

10:                                               ; preds = %2
  store i32 %9, ptr %5, align 4, !tbaa !393
  br label %11

11:                                               ; preds = %10
  br label %12

12:                                               ; preds = %11
  br label %13

13:                                               ; preds = %12
  br label %14

14:                                               ; preds = %13
  br label %15

15:                                               ; preds = %14
  br label %16

16:                                               ; preds = %15
  %17 = getelementptr inbounds nuw %"struct.std::__atomic_base", ptr %7, i32 0, i32 0
  %18 = load i32, ptr %4, align 4, !tbaa !393
  switch i32 %18, label %19 [
    i32 1, label %21
    i32 2, label %21
    i32 5, label %23
  ]

19:                                               ; preds = %16
  %20 = load atomic i64, ptr %17 monotonic, align 8
  store i64 %20, ptr %6, align 8
  br label %25

21:                                               ; preds = %16, %16
  %22 = load atomic i64, ptr %17 acquire, align 8
  store i64 %22, ptr %6, align 8
  br label %25

23:                                               ; preds = %16
  %24 = load atomic i64, ptr %17 seq_cst, align 8
  store i64 %24, ptr %6, align 8
  br label %25

25:                                               ; preds = %23, %21, %19
  %26 = load i64, ptr %6, align 8, !tbaa !9
  call void @llvm.lifetime.end.p0(i64 4, ptr %5) #19
  ret i64 %26

27:                                               ; preds = %2
  %28 = landingpad { ptr, i32 }
          catch ptr null
  %29 = extractvalue { ptr, i32 } %28, 0
  call void @__clang_call_terminate(ptr %29) #20
  unreachable
}

; Function Attrs: inlinehint mustprogress uwtable
define internal noundef i64 @_ZN7rocksdb11clock_cache12_GLOBAL__N_122LengthInfoToUsedLengthEm(i64 noundef %0) #2 {
  %2 = alloca i64, align 8
  %3 = alloca i64, align 8
  %4 = alloca i32, align 4
  %5 = alloca i64, align 8
  store i64 %0, ptr %2, align 8, !tbaa !9
  call void @llvm.lifetime.start.p0(i64 8, ptr %3) #19
  %6 = load i64, ptr %2, align 8, !tbaa !9
  %7 = call noundef i64 @_ZN7rocksdb11clock_cache12_GLOBAL__N_121LengthInfoToThresholdEm(i64 noundef %6)
  store i64 %7, ptr %3, align 8, !tbaa !9
  call void @llvm.lifetime.start.p0(i64 4, ptr %4) #19
  %8 = load i64, ptr %2, align 8, !tbaa !9
  %9 = call noundef i32 @_ZN7rocksdb11clock_cache12_GLOBAL__N_120LengthInfoToMinShiftEm(i64 noundef %8)
  store i32 %9, ptr %4, align 4, !tbaa !34
  call void @llvm.lifetime.start.p0(i64 8, ptr %5) #19
  %10 = load i32, ptr %4, align 4, !tbaa !34
  %11 = zext i32 %10 to i64
  %12 = shl i64 1, %11
  %13 = load i64, ptr %3, align 8, !tbaa !9
  %14 = add i64 %12, %13
  store i64 %14, ptr %5, align 8, !tbaa !9
  %15 = load i64, ptr %5, align 8, !tbaa !9
  call void @llvm.lifetime.end.p0(i64 8, ptr %5) #19
  call void @llvm.lifetime.end.p0(i64 4, ptr %4) #19
  call void @llvm.lifetime.end.p0(i64 8, ptr %3) #19
  ret i64 %15
}

; Function Attrs: mustprogress nounwind uwtable
define linkonce_odr noundef i64 @_ZNK7rocksdb12AcqRelAtomicImE4LoadEv(ptr noundef nonnull align 8 dereferenceable(8) %0) #1 comdat align 2 {
  %2 = alloca ptr, align 8
  store ptr %0, ptr %2, align 8, !tbaa !148
  %3 = load ptr, ptr %2, align 8
  %4 = getelementptr inbounds nuw %"class.rocksdb::RelaxedAtomic", ptr %3, i32 0, i32 0
  %5 = call noundef i64 @_ZNKSt13__atomic_baseImE4loadESt12memory_order(ptr noundef nonnull align 8 dereferenceable(8) %4, i32 noundef 2) #19
  ret i64 %5
}

; Function Attrs: mustprogress uwtable
define noundef i64 @_ZNK7rocksdb11clock_cache19AutoHyperClockTable12GetTableSizeEv(ptr noundef nonnull align 64 dereferenceable(208) %0) #0 align 2 {
  %2 = alloca ptr, align 8
  store ptr %0, ptr %2, align 8, !tbaa !121
  %3 = load ptr, ptr %2, align 8
  %4 = getelementptr inbounds nuw %"class.rocksdb::clock_cache::AutoHyperClockTable", ptr %3, i32 0, i32 2
  %5 = call noundef i64 @_ZNK7rocksdb12AcqRelAtomicImE4LoadEv(ptr noundef nonnull align 8 dereferenceable(8) %4)
  %6 = call noundef i64 @_ZN7rocksdb11clock_cache12_GLOBAL__N_122LengthInfoToUsedLengthEm(i64 noundef %5)
  ret i64 %6
}