; Function Attrs: mustprogress nofree norecurse nounwind willreturn memory(argmem: readwrite) uwtable
define noundef range(i64 1, -9151314442816847872) i64 @_ZNK7rocksdb11clock_cache19AutoHyperClockTable12GetTableSizeEv(ptr noundef nonnull readonly align 64 captures(none) dereferenceable(208) %0) local_unnamed_addr #7 align 2 personality ptr @__gxx_personality_v0 {
  %2 = getelementptr inbounds nuw i8, ptr %0, i64 176
  %3 = load atomic i64, ptr %2 acquire, align 16
  %4 = lshr i64 %3, 8
  %5 = and i64 %3, 255
  %6 = shl nuw i64 1, %5
  %7 = add nuw i64 %6, %4
  ret i64 %7
}